; Function Attrs: mustprogress nofree norecurse nosync nounwind willreturn memory(read, inaccessiblemem: write) uwtable
define dso_local noundef zeroext i1 @_ZNK4llvm6object19XCOFFTracebackTable17hasExtensionTableEv(ptr nocapture noundef nonnull readonly align 8 dereferenceable(288) %0) local_unnamed_addr #9 align 2 {
  %2 = load ptr, ptr %0, align 8
  %3 = getelementptr inbounds i8, ptr %2, i64 4
  call void @llvm.assume(i1 true) [ "align"(ptr %3, i64 1) ]
  %.0.copyload.i.i.i.i.i.i = load i32, ptr %3, align 1
  %4 = and i32 %.0.copyload.i.i.i.i.i.i, 32768
  %5 = icmp ne i32 %4, 0
  ret i1 %5
}